; Function Attrs: nounwind uwtable
define dso_local noundef zeroext i1 @yyjson_mut_val_write_fp(ptr noundef captures(address_is_null) %0, ptr noundef %1, i32 noundef %2, ptr noundef captures(address_is_null) %3, ptr noundef captures(address_is_null) %4) local_unnamed_addr #8 {
  %6 = alloca %struct.yyjson_write_err, align 8
  %7 = alloca i64, align 8
  call void @llvm.lifetime.start.p0(i64 16, ptr nonnull %6) #31
  call void @llvm.lifetime.start.p0(i64 8, ptr nonnull %7) #31
  store i64 0, ptr %7, align 8, !tbaa !85
  %.not = icmp eq ptr %3, null
  %8 = select i1 %.not, ptr @YYJSON_DEFAULT_ALC, ptr %3
  %.not20 = icmp eq ptr %4, null
  %9 = select i1 %.not20, ptr %6, ptr %4
  %.not21 = icmp eq ptr %0, null
  br i1 %.not21, label %10, label %11, !prof !4

10:                                               ; preds = %5
  %.sroa.sel.v.sroa.sel.v.sroa.sel.v = select i1 %.not20, ptr %6, ptr %4
  %.sroa.sel.v.sroa.sel.v.sroa.sel = getelementptr inbounds nuw i8, ptr %.sroa.sel.v.sroa.sel.v.sroa.sel.v, i64 8
  store ptr @.str.42, ptr %.sroa.sel.v.sroa.sel.v.sroa.sel, align 8, !tbaa !204
  store i32 1, ptr %9, align 8, !tbaa !206
  br label %21

11:                                               ; preds = %5
  %12 = call fastcc ptr @yyjson_mut_write_opts_impl(ptr noundef %1, i64 noundef 0, i32 noundef %2, ptr noundef nonnull %8, ptr noundef nonnull %7, ptr noundef nonnull %9)
  %.not22 = icmp eq ptr %12, null
  br i1 %.not22, label %21, label %13, !prof !4

13:                                               ; preds = %11
  %14 = load i64, ptr %7, align 8, !tbaa !85
  %15 = call i64 @fwrite(ptr noundef nonnull %12, i64 noundef %14, i64 noundef 1, ptr noundef nonnull %0)
  %.not.i = icmp eq i64 %15, 1
  br i1 %.not.i, label %write_dat_to_fp.exit, label %16

16:                                               ; preds = %13
  %.sroa.sel26.v.sroa.sel.v.sroa.sel.v = select i1 %.not20, ptr %6, ptr %4
  %.sroa.sel26.v.sroa.sel.v.sroa.sel = getelementptr inbounds nuw i8, ptr %.sroa.sel26.v.sroa.sel.v.sroa.sel.v, i64 8
  store ptr @.str.103, ptr %.sroa.sel26.v.sroa.sel.v.sroa.sel, align 8, !tbaa !204
  store i32 6, ptr %9, align 8, !tbaa !206
  br label %write_dat_to_fp.exit

write_dat_to_fp.exit:                             ; preds = %13, %16
  %17 = getelementptr inbounds nuw i8, ptr %8, i64 16
  %18 = load ptr, ptr %17, align 8, !tbaa !21
  %19 = getelementptr inbounds nuw i8, ptr %8, i64 24
  %20 = load ptr, ptr %19, align 8, !tbaa !22
  call void %18(ptr noundef %20, ptr noundef nonnull %12) #31
  br label %21

21:                                               ; preds = %11, %write_dat_to_fp.exit, %10
  %.0 = phi i1 [ false, %10 ], [ %.not.i, %write_dat_to_fp.exit ], [ false, %11 ]
  call void @llvm.lifetime.end.p0(i64 8, ptr nonnull %7) #31
  call void @llvm.lifetime.end.p0(i64 16, ptr nonnull %6) #31
  ret i1 %.0
}